; Function Attrs: mustprogress nofree norecurse nosync nounwind memory(argmem: readwrite) uwtable
define internal noundef i32 @_ZN2cvL15normDiffInf_16uEPKtS1_PKhPiii(ptr noundef readonly captures(none) %0, ptr noundef readonly captures(none) %1, ptr noundef readonly %2, ptr noundef captures(none) %3, i32 noundef %4, i32 noundef %5) #10 {
  %7 = load i32, ptr %3, align 4, !tbaa !11
  %.not.i = icmp eq ptr %2, null
  br i1 %.not.i, label %23, label %.preheader39.i

.preheader39.i:                                   ; preds = %6
  %8 = icmp sgt i32 %4, 0
  br i1 %8, label %.lr.ph47.i, label %_ZN2cv12normDiffInf_ItiEEiPKT_S3_PKhPT0_ii.exit

.lr.ph47.i:                                       ; preds = %.preheader39.i
  %9 = icmp sgt i32 %5, 0
  %10 = sext i32 %5 to i64
  br i1 %9, label %.lr.ph47.split.us.preheader.i, label %_ZN2cv12normDiffInf_ItiEEiPKT_S3_PKhPT0_ii.exit

.lr.ph47.split.us.preheader.i:                    ; preds = %.lr.ph47.i
  %wide.trip.count54.i = zext nneg i32 %4 to i64
  %wide.trip.count.i = zext nneg i32 %5 to i64
  br label %.lr.ph47.split.us.i

.lr.ph47.split.us.i:                              ; preds = %..loopexit_crit_edge.us.i, %.lr.ph47.split.us.preheader.i
  %indvars.iv51.i = phi i64 [ 0, %.lr.ph47.split.us.preheader.i ], [ %indvars.iv.next52.i, %..loopexit_crit_edge.us.i ]
  %.02345.us.i = phi ptr [ %0, %.lr.ph47.split.us.preheader.i ], [ %21, %..loopexit_crit_edge.us.i ]
  %.02444.us.i = phi ptr [ %1, %.lr.ph47.split.us.preheader.i ], [ %22, %..loopexit_crit_edge.us.i ]
  %.143.us.i = phi i32 [ %7, %.lr.ph47.split.us.preheader.i ], [ %.3.us.i, %..loopexit_crit_edge.us.i ]
  %11 = getelementptr inbounds nuw i8, ptr %2, i64 %indvars.iv51.i
  %12 = load i8, ptr %11, align 1, !tbaa !12
  %.not26.us.i = icmp eq i8 %12, 0
  br i1 %.not26.us.i, label %..loopexit_crit_edge.us.i, label %.preheader.us.i

.preheader.us.i:                                  ; preds = %.lr.ph47.split.us.i, %.preheader.us.i
  %indvars.iv.i = phi i64 [ %indvars.iv.next.i, %.preheader.us.i ], [ 0, %.lr.ph47.split.us.i ]
  %.241.us.i = phi i32 [ %.sroa.speculated.us.i, %.preheader.us.i ], [ %.143.us.i, %.lr.ph47.split.us.i ]
  %13 = getelementptr inbounds nuw i16, ptr %.02345.us.i, i64 %indvars.iv.i
  %14 = load i16, ptr %13, align 2, !tbaa !20
  %15 = zext i16 %14 to i32
  %16 = getelementptr inbounds nuw i16, ptr %.02444.us.i, i64 %indvars.iv.i
  %17 = load i16, ptr %16, align 2, !tbaa !20
  %18 = zext i16 %17 to i32
  %19 = sub nsw i32 %15, %18
  %20 = tail call i32 @llvm.abs.i32(i32 %19, i1 true)
  %.sroa.speculated.us.i = tail call i32 @llvm.smax.i32(i32 %.241.us.i, i32 %20)
  %indvars.iv.next.i = add nuw nsw i64 %indvars.iv.i, 1
  %exitcond.not.i = icmp eq i64 %indvars.iv.next.i, %wide.trip.count.i
  br i1 %exitcond.not.i, label %..loopexit_crit_edge.us.i, label %.preheader.us.i, !llvm.loop !170

..loopexit_crit_edge.us.i:                        ; preds = %.preheader.us.i, %.lr.ph47.split.us.i
  %.3.us.i = phi i32 [ %.143.us.i, %.lr.ph47.split.us.i ], [ %.sroa.speculated.us.i, %.preheader.us.i ]
  %indvars.iv.next52.i = add nuw nsw i64 %indvars.iv51.i, 1
  %21 = getelementptr inbounds nuw i16, ptr %.02345.us.i, i64 %10
  %22 = getelementptr inbounds nuw i16, ptr %.02444.us.i, i64 %10
  %exitcond55.not.i = icmp eq i64 %indvars.iv.next52.i, %wide.trip.count54.i
  br i1 %exitcond55.not.i, label %_ZN2cv12normDiffInf_ItiEEiPKT_S3_PKhPT0_ii.exit, label %.lr.ph47.split.us.i, !llvm.loop !171

23:                                               ; preds = %6
  %24 = mul nsw i32 %5, %4
  %25 = icmp sgt i32 %24, 0
  br i1 %25, label %.lr.ph.preheader.i.i, label %_ZN2cvL7normInfItiEET0_PKT_S4_i.exit.i

.lr.ph.preheader.i.i:                             ; preds = %23
  %wide.trip.count.i.i = zext nneg i32 %24 to i64
  br label %.lr.ph.i.i

.lr.ph.i.i:                                       ; preds = %.lr.ph.i.i, %.lr.ph.preheader.i.i
  %indvars.iv.i.i = phi i64 [ 0, %.lr.ph.preheader.i.i ], [ %indvars.iv.next.i.i, %.lr.ph.i.i ]
  %.01112.i.i = phi i32 [ 0, %.lr.ph.preheader.i.i ], [ %.sroa.speculated.i.i, %.lr.ph.i.i ]
  %26 = getelementptr inbounds nuw i16, ptr %0, i64 %indvars.iv.i.i
  %27 = load i16, ptr %26, align 2, !tbaa !20
  %28 = zext i16 %27 to i32
  %29 = getelementptr inbounds nuw i16, ptr %1, i64 %indvars.iv.i.i
  %30 = load i16, ptr %29, align 2, !tbaa !20
  %31 = zext i16 %30 to i32
  %32 = sub nsw i32 %28, %31
  %33 = tail call i32 @llvm.abs.i32(i32 %32, i1 true)
  %.sroa.speculated.i.i = tail call i32 @llvm.umax.i32(i32 %.01112.i.i, i32 %33)
  %indvars.iv.next.i.i = add nuw nsw i64 %indvars.iv.i.i, 1
  %exitcond.not.i.i = icmp eq i64 %indvars.iv.next.i.i, %wide.trip.count.i.i
  br i1 %exitcond.not.i.i, label %_ZN2cvL7normInfItiEET0_PKT_S4_i.exit.i, label %.lr.ph.i.i, !llvm.loop !172

_ZN2cvL7normInfItiEET0_PKT_S4_i.exit.i:           ; preds = %.lr.ph.i.i, %23
  %.011.lcssa.i.i = phi i32 [ 0, %23 ], [ %.sroa.speculated.i.i, %.lr.ph.i.i ]
  %.sroa.speculated30.i = tail call i32 @llvm.smax.i32(i32 %7, i32 %.011.lcssa.i.i)
  br label %_ZN2cv12normDiffInf_ItiEEiPKT_S3_PKhPT0_ii.exit

_ZN2cv12normDiffInf_ItiEEiPKT_S3_PKhPT0_ii.exit:  ; preds = %..loopexit_crit_edge.us.i, %.preheader39.i, %.lr.ph47.i, %_ZN2cvL7normInfItiEET0_PKT_S4_i.exit.i
  %.038.i = phi i32 [ %.sroa.speculated30.i, %_ZN2cvL7normInfItiEET0_PKT_S4_i.exit.i ], [ %7, %.preheader39.i ], [ %7, %.lr.ph47.i ], [ %.3.us.i, %..loopexit_crit_edge.us.i ]
  store i32 %.038.i, ptr %3, align 4, !tbaa !11
  ret i32 0
}